; Function Attrs: mustprogress uwtable
define dso_local void @_ZNK30cmGlobalUnixMakefileGenerator321ConvertToMakefilePathERKNSt7__cxx1112basic_stringIcSt11char_traitsIcESaIcEEE(ptr dead_on_unwind noalias nonnull writable sret(%"class.std::__cxx11::basic_string") align 8 %0, ptr nocapture noundef nonnull readnone align 8 dereferenceable(2120) %1, ptr noundef nonnull align 8 dereferenceable(32) %2) local_unnamed_addr #3 align 2 personality ptr @__gxx_personality_v0 {
  tail call void @_ZNSt7__cxx1112basic_stringIcSt11char_traitsIcESaIcEEC1Ev(ptr noundef nonnull align 8 dereferenceable(32) %0) #20
  %4 = tail call noundef i64 @_ZNKSt7__cxx1112basic_stringIcSt11char_traitsIcESaIcEE4sizeEv(ptr noundef nonnull align 8 dereferenceable(32) %2) #20
  invoke void @_ZNSt7__cxx1112basic_stringIcSt11char_traitsIcESaIcEE7reserveEm(ptr noundef nonnull align 8 dereferenceable(32) %0, i64 noundef %4)
          to label %5 unwind label %.loopexit.split-lp.i

5:                                                ; preds = %3
  %6 = tail call ptr @_ZNKSt7__cxx1112basic_stringIcSt11char_traitsIcESaIcEE5beginEv(ptr noundef nonnull align 8 dereferenceable(32) %2) #20
  %7 = tail call ptr @_ZNKSt7__cxx1112basic_stringIcSt11char_traitsIcESaIcEE3endEv(ptr noundef nonnull align 8 dereferenceable(32) %2) #20
  %.not11.i = icmp eq ptr %6, %7
  br i1 %.not11.i, label %_ZN12_GLOBAL__N_128ConvertToMakefilePathForUnixERKNSt7__cxx1112basic_stringIcSt11char_traitsIcESaIcEEE.exit, label %.lr.ph.i

.lr.ph.i:                                         ; preds = %5, %15
  %.sroa.08.012.i = phi ptr [ %16, %15 ], [ %6, %5 ]
  %8 = load i8, ptr %.sroa.08.012.i, align 1
  switch i8 %8, label %14 [
    i8 61, label %.invoke.i
    i8 36, label %12
    i8 92, label %13
    i8 32, label %13
    i8 35, label %13
  ]

.loopexit.i:                                      ; preds = %14, %13, %.invoke.i
  %lpad.loopexit.i = landingpad { ptr, i32 }
          cleanup
  br label %9

.loopexit.split-lp.i:                             ; preds = %3
  %lpad.loopexit.split-lp.i = landingpad { ptr, i32 }
          cleanup
  br label %9

9:                                                ; preds = %.loopexit.split-lp.i, %.loopexit.i
  %lpad.phi.i = phi { ptr, i32 } [ %lpad.loopexit.i, %.loopexit.i ], [ %lpad.loopexit.split-lp.i, %.loopexit.split-lp.i ]
  tail call void @_ZNSt7__cxx1112basic_stringIcSt11char_traitsIcESaIcEED1Ev(ptr noundef nonnull align 8 dereferenceable(32) %0) #20
  resume { ptr, i32 } %lpad.phi.i

.invoke.i:                                        ; preds = %12, %.lr.ph.i
  %10 = phi ptr [ @.str.99, %12 ], [ @.str.98, %.lr.ph.i ]
  %11 = invoke noundef nonnull align 8 dereferenceable(32) ptr @_ZNSt7__cxx1112basic_stringIcSt11char_traitsIcESaIcEE6appendEPKc(ptr noundef nonnull align 8 dereferenceable(32) %0, ptr noundef nonnull %10)
          to label %15 unwind label %.loopexit.i

12:                                               ; preds = %.lr.ph.i
  br label %.invoke.i

13:                                               ; preds = %.lr.ph.i, %.lr.ph.i, %.lr.ph.i
  invoke void @_ZNSt7__cxx1112basic_stringIcSt11char_traitsIcESaIcEE9push_backEc(ptr noundef nonnull align 8 dereferenceable(32) %0, i8 noundef signext 92)
          to label %14 unwind label %.loopexit.i

14:                                               ; preds = %13, %.lr.ph.i
  invoke void @_ZNSt7__cxx1112basic_stringIcSt11char_traitsIcESaIcEE9push_backEc(ptr noundef nonnull align 8 dereferenceable(32) %0, i8 noundef signext %8)
          to label %15 unwind label %.loopexit.i

15:                                               ; preds = %14, %.invoke.i
  %16 = getelementptr inbounds i8, ptr %.sroa.08.012.i, i64 1
  %.not.i = icmp eq ptr %16, %7
  br i1 %.not.i, label %_ZN12_GLOBAL__N_128ConvertToMakefilePathForUnixERKNSt7__cxx1112basic_stringIcSt11char_traitsIcESaIcEEE.exit, label %.lr.ph.i

_ZN12_GLOBAL__N_128ConvertToMakefilePathForUnixERKNSt7__cxx1112basic_stringIcSt11char_traitsIcESaIcEEE.exit: ; preds = %15, %5
  ret void
}